Certificate:
    Data:
        Version: 3 (0x2)
        Serial Number: 3 (0x3)
        Signature Algorithm: md5WithRSAEncryption
        Issuer: C=US, ST=California, O=Antlinux Consulting, OU=Certificate Authority, CN=www.antlinux.com/emailAddress=dns at antlinux dot com
        Validity
            Not Before: Sep  5 07:27:38 2006 GMT
            Not After : Sep  4 07:27:38 2008 GMT
        Subject: C=US, ST=California, L=San Diego, O=Antlinux Consulting, OU=Webmaster, CN=ff.antlinux.com/emailAddress=dns at antlinux dot com
        Subject Public Key Info:
            Public Key Algorithm: rsaEncryption
            RSA Public Key: (1024 bit)
                Modulus (1024 bit):
                    00:d4:4e:06:f7:79:cd:e9:91:d1:28:90:77:94:40:
                    d9:af:f0:d2:08:da:62:77:de:b3:44:99:46:98:27:
                    a7:b0:ea:84:be:f2:63:27:80:8a:8c:09:ee:27:6a:
                    b2:94:28:ad:e1:4d:5b:00:a9:98:75:d3:3a:11:be:
                    d6:44:e7:02:a4:ca:ab:e5:6f:07:33:14:45:a5:01:
                    b8:e6:17:5c:fa:ae:f8:43:41:b4:0d:86:5d:03:b4:
                    e7:2d:61:3a:95:91:fa:34:7a:0a:9d:8f:c8:c0:e4:
                    7f:30:45:14:93:b7:cd:a5:0d:4d:c6:0c:a1:d3:a6:
                    8e:17:60:ba:d0:21:13:13:59
                Exponent: 65537 (0x10001)
        X509v3 extensions:
            X509v3 Basic Constraints: 
                CA:FALSE
            Netscape Comment: 
                OpenSSL Generated Certificate
            X509v3 Subject Key Identifier: 
                4A:A0:9D:5D:D8:C7:86:B2:04:41:34:67:1E:C1:AF:09:9E:78:BA:59
            X509v3 Authority Key Identifier: 
                keyid:9E:61:E8:FA:A0:48:10:AE:A5:AF:BC:0D:39:05:65:E2:19:86:97:AB
                DirName:/C=US/ST=California/O=Antlinux Consulting/OU=Certificate Authority/CN=www.antlinux.com/emailAddress=dns at antlinux dot com
                serial:01

    Signature Algorithm: md5WithRSAEncryption
        1e:91:8d:16:f3:54:3b:77:d5:5b:39:98:c9:36:96:73:c1:e9:
        ca:f6:b2:a9:e3:d9:04:0b:76:22:2e:f0:be:10:3a:85:ee:e4:
        8b:fc:9a:b9:79:9a:1f:6b:5f:01:c0:35:f5:10:54:c0:be:d1:
        07:28:7b:42:13:37:53:5c:88:b0:d7:68:85:ad:0d:9c:89:57:
        8f:59:f5:21:52:79:5d:7d:92:9c:a0:06:3d:b2:7b:7d:82:ce:
        1f:b1:cb:6c:53:8e:58:6a:f4:76:fa:aa:57:99:05:40:f2:2a:
        58:88:39:43:e7:ac:c0:58:82:95:ef:1c:25:be:49:e6:b9:cf:
        74:85
-----BEGIN CERTIFICATE-----
MIID9jCCA1+gAwIBAgIBAzANBgkqhkiG9w0BAQQFADCBozELMAkGA1UEBhMCVVMx
EzARBgNVBAgTCkNhbGlmb3JuaWExHDAaBgNVBAoTE0FudGxpbnV4IENvbnN1bHRp
bmcxHjAcBgNVBAsTFUNlcnRpZmljYXRlIEF1dGhvcml0eTEZMBcGA1UEAxMQd3d3
LmFudGxpbnV4LmNvbTEmMCQGCSqGSIb3DQEJARYXZG5zIGF0IGFudGxpbnV4IGRv
dCBjb20wHhcNMDYwOTA1MDcyNzM4WhcNMDgwOTA0MDcyNzM4WjCBqjELMAkGA1UE
BhMCVVMxEzARBgNVBAgTCkNhbGlmb3JuaWExEjAQBgNVBAcTCVNhbiBEaWVnbzEc
MBoGA1UEChMTQW50bGludXggQ29uc3VsdGluZzESMBAGA1UECxMJV2VibWFzdGVy
MRgwFgYDVQQDEw9mZi5hbnRsaW51eC5jb20xJjAkBgkqhkiG9w0BCQEWF2RucyBh
dCBhbnRsaW51eCBkb3QgY29tMIGfMA0GCSqGSIb3DQEBAQUAA4GNADCBiQKBgQDU
Tgb3ec3pkdEokHeUQNmv8NII2mJ33rNEmUaYJ6ew6oS+8mMngIqMCe4narKUKK3h
TVsAqZh10zoRvtZE5wKkyqvlbwczFEWlAbjmF1z6rvhDQbQNhl0DtOctYTqVkfo0
egqdj8jA5H8wRRSTt82lDU3GDKHTpo4XYLrQIRMTWQIDAQABo4IBLzCCASswCQYD
VR0TBAIwADAsBglghkgBhvhCAQ0EHxYdT3BlblNTTCBHZW5lcmF0ZWQgQ2VydGlm
aWNhdGUwHQYDVR0OBBYEFEqgnV3Yx4ayBEE0Zx7BrwmeeLpZMIHQBgNVHSMEgcgw
gcWAFJ5h6PqgSBCupa+8DTkFZeIZhperoYGppIGmMIGjMQswCQYDVQQGEwJVUzET
MBEGA1UECBMKQ2FsaWZvcm5pYTEcMBoGA1UEChMTQW50bGludXggQ29uc3VsdGlu
ZzEeMBwGA1UECxMVQ2VydGlmaWNhdGUgQXV0aG9yaXR5MRkwFwYDVQQDExB3d3cu
YW50bGludXguY29tMSYwJAYJKoZIhvcNAQkBFhdkbnMgYXQgYW50bGludXggZG90
IGNvbYIBATANBgkqhkiG9w0BAQQFAAOBgQAekY0W81Q7d9VbOZjJNpZzwenK9rKp
49kEC3YiLvC+EDqF7uSL/Jq5eZofa18BwDX1EFTAvtEHKHtCEzdTXIiw12iFrQ2c
iVePWfUhUnldfZKcoAY9snt9gs4fsctsU45YavR2+qpXmQVA8ipYiDlD56zAWIKV
7xwlvknmuc90hQ==
-----END CERTIFICATE-----
